; Function Attrs: nounwind ssp uwtable
define dso_local noundef i32 @crypto_sign_ed25519_sk_to_curve25519(ptr noundef nonnull %0, ptr noundef nonnull %1) local_unnamed_addr #0 {
  %3 = alloca [64 x i8], align 16
  call void @llvm.lifetime.start.p0(i64 64, ptr nonnull %3) #4
  %4 = call i32 @crypto_hash_sha512(ptr noundef nonnull %3, ptr noundef nonnull %1, i64 noundef 32) #4
  %5 = load i8, ptr %3, align 16
  %6 = and i8 %5, -8
  store i8 %6, ptr %3, align 16
  %7 = getelementptr inbounds nuw i8, ptr %3, i64 31
  %8 = load i8, ptr %7, align 1
  %9 = and i8 %8, 63
  %10 = or disjoint i8 %9, 64
  store i8 %10, ptr %7, align 1
  call void @llvm.memcpy.p0.p0.i64(ptr noundef nonnull align 1 dereferenceable(32) %0, ptr noundef nonnull align 16 dereferenceable(32) %3, i64 noundef 32, i1 noundef false) #4
  call void @sodium_memzero(ptr noundef nonnull %3, i64 noundef 64) #4
  call void @llvm.lifetime.end.p0(i64 64, ptr nonnull %3) #4
  ret i32 0
}